target datalayout = "e-m:e-p270:32:32-p271:32:32-p272:64:64-i64:64-i128:128-f80:128-n8:16:32:64-S128"
target triple = "x86_64-pc-linux-gnu"

@hf_dis_entity_id_site = internal global i32 0, align 4
@hf_dis_entity_id_application = internal global i32 0, align 4
@hf_dis_entity_id_entity = internal global i32 0, align 4
@hf_dis_num_fixed_data = internal global i32 0, align 4
@hf_dis_num_variable_data = internal global i32 0, align 4
@ett_entity = internal global i32 0, align 4
@.str.4108 = private unnamed_addr constant [22 x i8] c"Originating Entity ID\00", align 1
@.str.4109 = private unnamed_addr constant [20 x i8] c"Receiving Entity ID\00", align 1
@.str.4112 = private unnamed_addr constant [11 x i8] c"Fixed data\00", align 1
@.str.4113 = private unnamed_addr constant [14 x i8] c"Variable data\00", align 1

; Function Attrs: nounwind uwtable
define internal i32 @parseField_Entity(ptr noundef %0, ptr noundef %1, i32 noundef %2, ptr noundef %3) #0 {
  %5 = alloca ptr, align 8
  %6 = alloca ptr, align 8
  %7 = alloca i32, align 4
  %8 = alloca ptr, align 8
  %9 = alloca ptr, align 8
  store ptr %0, ptr %5, align 8
  store ptr %1, ptr %6, align 8
  store i32 %2, ptr %7, align 4
  store ptr %3, ptr %8, align 8
  %10 = load ptr, ptr %6, align 8
  %11 = load ptr, ptr %5, align 8
  %12 = load i32, ptr %7, align 4
  %13 = load i32, ptr @ett_entity, align 4
  %14 = load ptr, ptr %8, align 8
  %15 = call ptr @proto_tree_add_subtree(ptr noundef %10, ptr noundef %11, i32 noundef %12, i32 noundef 6, i32 noundef %13, ptr noundef null, ptr noundef %14)
  store ptr %15, ptr %9, align 8
  %16 = load ptr, ptr %9, align 8
  %17 = load i32, ptr @hf_dis_entity_id_site, align 4
  %18 = load ptr, ptr %5, align 8
  %19 = load i32, ptr %7, align 4
  %20 = call ptr @proto_tree_add_item(ptr noundef %16, i32 noundef %17, ptr noundef %18, i32 noundef %19, i32 noundef 2, i32 noundef 0)
  %21 = load i32, ptr %7, align 4
  %22 = add i32 %21, 2
  store i32 %22, ptr %7, align 4
  %23 = load ptr, ptr %9, align 8
  %24 = load i32, ptr @hf_dis_entity_id_application, align 4
  %25 = load ptr, ptr %5, align 8
  %26 = load i32, ptr %7, align 4
  %27 = call ptr @proto_tree_add_item(ptr noundef %23, i32 noundef %24, ptr noundef %25, i32 noundef %26, i32 noundef 2, i32 noundef 0)
  %28 = load i32, ptr %7, align 4
  %29 = add i32 %28, 2
  store i32 %29, ptr %7, align 4
  %30 = load ptr, ptr %9, align 8
  %31 = load i32, ptr @hf_dis_entity_id_entity, align 4
  %32 = load ptr, ptr %5, align 8
  %33 = load i32, ptr %7, align 4
  %34 = call ptr @proto_tree_add_item(ptr noundef %30, i32 noundef %31, ptr noundef %32, i32 noundef %33, i32 noundef 2, i32 noundef 0)
  %35 = load i32, ptr %7, align 4
  %36 = add i32 %35, 2
  store i32 %36, ptr %7, align 4
  %37 = load i32, ptr %7, align 4
  ret i32 %37
}

; Function Attrs: nounwind uwtable
define internal i32 @dissect_DIS_PARSER_COMMENT_PDU(ptr noundef %0, ptr noundef %1, ptr noundef %2, i32 noundef %3) #0 {
  %5 = alloca ptr, align 8
  %6 = alloca ptr, align 8
  %7 = alloca ptr, align 8
  %8 = alloca i32, align 4
  %9 = alloca i32, align 4
  %10 = alloca i32, align 4
  store ptr %0, ptr %5, align 8
  store ptr %1, ptr %6, align 8
  store ptr %2, ptr %7, align 8
  store i32 %3, ptr %8, align 4
  %11 = load ptr, ptr %5, align 8
  %12 = load ptr, ptr %7, align 8
  %13 = load i32, ptr %8, align 4
  %14 = call i32 @parseField_Entity(ptr noundef %11, ptr noundef %12, i32 noundef %13, ptr noundef @.str.4108)
  store i32 %14, ptr %8, align 4
  %15 = load ptr, ptr %5, align 8
  %16 = load ptr, ptr %7, align 8
  %17 = load i32, ptr %8, align 4
  %18 = call i32 @parseField_Entity(ptr noundef %15, ptr noundef %16, i32 noundef %17, ptr noundef @.str.4109)
  store i32 %18, ptr %8, align 4
  %19 = load ptr, ptr %5, align 8
  %20 = load i32, ptr %8, align 4
  %21 = call i32 @tvb_get_ntohl(ptr noundef %19, i32 noundef %20)
  store i32 %21, ptr %9, align 4
  %22 = load ptr, ptr %7, align 8
  %23 = load i32, ptr @hf_dis_num_fixed_data, align 4
  %24 = load ptr, ptr %5, align 8
  %25 = load i32, ptr %8, align 4
  %26 = call ptr @proto_tree_add_item(ptr noundef %22, i32 noundef %23, ptr noundef %24, i32 noundef %25, i32 noundef 4, i32 noundef 0)
  %27 = load i32, ptr %8, align 4
  %28 = add i32 %27, 4
  store i32 %28, ptr %8, align 4
  %29 = load ptr, ptr %5, align 8
  %30 = load i32, ptr %8, align 4
  %31 = call i32 @tvb_get_ntohl(ptr noundef %29, i32 noundef %30)
  store i32 %31, ptr %10, align 4
  %32 = load ptr, ptr %7, align 8
  %33 = load i32, ptr @hf_dis_num_variable_data, align 4
  %34 = load ptr, ptr %5, align 8
  %35 = load i32, ptr %8, align 4
  %36 = call ptr @proto_tree_add_item(ptr noundef %32, i32 noundef %33, ptr noundef %34, i32 noundef %35, i32 noundef 4, i32 noundef 0)
  %37 = load i32, ptr %8, align 4
  %38 = add i32 %37, 4
  store i32 %38, ptr %8, align 4
  %39 = load ptr, ptr %5, align 8
  %40 = load ptr, ptr %7, align 8
  %41 = load i32, ptr %8, align 4
  %42 = load i32, ptr %9, align 4
  %43 = call i32 @parseField_DIS_FIELDS_FIXED_DATUM(ptr noundef %39, ptr noundef %40, i32 noundef %41, ptr noundef @.str.4112, i32 noundef %42)
  store i32 %43, ptr %8, align 4
  %44 = load ptr, ptr %5, align 8
  %45 = load ptr, ptr %7, align 8
  %46 = load i32, ptr %8, align 4
  %47 = load i32, ptr %10, align 4
  %48 = call i32 @parseField_DIS_FIELDS_VARIABLE_DATUM(ptr noundef %44, ptr noundef %45, i32 noundef %46, ptr noundef @.str.4113, i32 noundef %47)
  store i32 %48, ptr %8, align 4
  %49 = load i32, ptr %8, align 4
  ret i32 %49
}