; Function Attrs: nounwind uwtable
define internal fastcc noundef i32 @dissect_DIS_PARSER_COMMENT_PDU(ptr noundef %0, ptr noundef %1) unnamed_addr #0 {
  %3 = load i32, ptr @ett_entity, align 4
  %4 = tail call ptr @proto_tree_add_subtree(ptr noundef %1, ptr noundef %0, i32 noundef 12, i32 noundef 6, i32 noundef %3, ptr noundef null, ptr noundef nonnull @.str.4108) #4
  %5 = load i32, ptr @hf_dis_entity_id_site, align 4
  %6 = tail call ptr @proto_tree_add_item(ptr noundef %4, i32 noundef %5, ptr noundef %0, i32 noundef 12, i32 noundef 2, i32 noundef 0) #4
  %7 = load i32, ptr @hf_dis_entity_id_application, align 4
  %8 = tail call ptr @proto_tree_add_item(ptr noundef %4, i32 noundef %7, ptr noundef %0, i32 noundef 14, i32 noundef 2, i32 noundef 0) #4
  %9 = load i32, ptr @hf_dis_entity_id_entity, align 4
  %10 = tail call ptr @proto_tree_add_item(ptr noundef %4, i32 noundef %9, ptr noundef %0, i32 noundef 16, i32 noundef 2, i32 noundef 0) #4
  %11 = load i32, ptr @ett_entity, align 4
  %12 = tail call ptr @proto_tree_add_subtree(ptr noundef %1, ptr noundef %0, i32 noundef 18, i32 noundef 6, i32 noundef %11, ptr noundef null, ptr noundef nonnull @.str.4109) #4
  %13 = load i32, ptr @hf_dis_entity_id_site, align 4
  %14 = tail call ptr @proto_tree_add_item(ptr noundef %12, i32 noundef %13, ptr noundef %0, i32 noundef 18, i32 noundef 2, i32 noundef 0) #4
  %15 = load i32, ptr @hf_dis_entity_id_application, align 4
  %16 = tail call ptr @proto_tree_add_item(ptr noundef %12, i32 noundef %15, ptr noundef %0, i32 noundef 20, i32 noundef 2, i32 noundef 0) #4
  %17 = load i32, ptr @hf_dis_entity_id_entity, align 4
  %18 = tail call ptr @proto_tree_add_item(ptr noundef %12, i32 noundef %17, ptr noundef %0, i32 noundef 22, i32 noundef 2, i32 noundef 0) #4
  %19 = tail call i32 @tvb_get_ntohl(ptr noundef %0, i32 noundef 24) #4
  %20 = load i32, ptr @hf_dis_num_fixed_data, align 4
  %21 = tail call ptr @proto_tree_add_item(ptr noundef %1, i32 noundef %20, ptr noundef %0, i32 noundef 24, i32 noundef 4, i32 noundef 0) #4
  %22 = tail call i32 @tvb_get_ntohl(ptr noundef %0, i32 noundef 28) #4
  %23 = load i32, ptr @hf_dis_num_variable_data, align 4
  %24 = tail call ptr @proto_tree_add_item(ptr noundef %1, i32 noundef %23, ptr noundef %0, i32 noundef 28, i32 noundef 4, i32 noundef 0) #4
  %25 = tail call fastcc i32 @parseField_DIS_FIELDS_FIXED_DATUM(ptr noundef %0, ptr noundef %1, i32 noundef 32, i32 noundef %19)
  %26 = tail call fastcc i32 @parseField_DIS_FIELDS_VARIABLE_DATUM(ptr noundef %0, ptr noundef %1, i32 noundef %25, ptr noundef nonnull @.str.4113, i32 noundef %22)
  ret i32 %26
}